
bldc_sensorless.elf:     file format elf32-avr

Sections:
Idx Name          Size      VMA       LMA       File off  Algn
  0 .data         00000004  00800100  00000906  0000099a  2**0
                  CONTENTS, ALLOC, LOAD, DATA
  1 .text         00000906  00000000  00000000  00000094  2**1
                  CONTENTS, ALLOC, LOAD, READONLY, CODE
  2 .bss          00000030  00800104  00800104  0000099e  2**0
                  ALLOC
  3 .comment      00000030  00000000  00000000  0000099e  2**0
                  CONTENTS, READONLY
  4 .note.gnu.avr.deviceinfo 00000040  00000000  00000000  000009d0  2**2
                  CONTENTS, READONLY
  5 .debug_aranges 00000278  00000000  00000000  00000a10  2**0
                  CONTENTS, READONLY, DEBUGGING
  6 .debug_info   00001bd6  00000000  00000000  00000c88  2**0
                  CONTENTS, READONLY, DEBUGGING
  7 .debug_abbrev 0000127e  00000000  00000000  0000285e  2**0
                  CONTENTS, READONLY, DEBUGGING
  8 .debug_line   00001065  00000000  00000000  00003adc  2**0
                  CONTENTS, READONLY, DEBUGGING
  9 .debug_frame  0000050c  00000000  00000000  00004b44  2**2
                  CONTENTS, READONLY, DEBUGGING
 10 .debug_str    00000b42  00000000  00000000  00005050  2**0
                  CONTENTS, READONLY, DEBUGGING
 11 .debug_loc    0000064b  00000000  00000000  00005b92  2**0
                  CONTENTS, READONLY, DEBUGGING
 12 .debug_ranges 000001d8  00000000  00000000  000061dd  2**0
                  CONTENTS, READONLY, DEBUGGING

Disassembly of section .text:

00000000 <__vectors>:
   0:	0c 94 3e 00 	jmp	0x7c	; 0x7c <__ctors_end>
   4:	0c 94 5b 00 	jmp	0xb6	; 0xb6 <__bad_interrupt>
   8:	0c 94 5b 00 	jmp	0xb6	; 0xb6 <__bad_interrupt>
   c:	0c 94 5b 00 	jmp	0xb6	; 0xb6 <__bad_interrupt>
  10:	0c 94 5b 00 	jmp	0xb6	; 0xb6 <__bad_interrupt>
  14:	0c 94 5b 00 	jmp	0xb6	; 0xb6 <__bad_interrupt>
  18:	0c 94 5b 00 	jmp	0xb6	; 0xb6 <__bad_interrupt>
  1c:	0c 94 5b 00 	jmp	0xb6	; 0xb6 <__bad_interrupt>
  20:	0c 94 5b 00 	jmp	0xb6	; 0xb6 <__bad_interrupt>
  24:	0c 94 5b 00 	jmp	0xb6	; 0xb6 <__bad_interrupt>
  28:	0c 94 5b 00 	jmp	0xb6	; 0xb6 <__bad_interrupt>
  2c:	0c 94 5b 00 	jmp	0xb6	; 0xb6 <__bad_interrupt>
  30:	0c 94 5b 00 	jmp	0xb6	; 0xb6 <__bad_interrupt>
  34:	0c 94 5b 00 	jmp	0xb6	; 0xb6 <__bad_interrupt>
  38:	0c 94 34 04 	jmp	0x868	; 0x868 <__vector_14>
  3c:	0c 94 1c 04 	jmp	0x838	; 0x838 <__vector_15>
  40:	0c 94 5b 00 	jmp	0xb6	; 0xb6 <__bad_interrupt>
  44:	0c 94 5b 00 	jmp	0xb6	; 0xb6 <__bad_interrupt>
  48:	0c 94 5b 00 	jmp	0xb6	; 0xb6 <__bad_interrupt>
  4c:	0c 94 5b 00 	jmp	0xb6	; 0xb6 <__bad_interrupt>
  50:	0c 94 5b 00 	jmp	0xb6	; 0xb6 <__bad_interrupt>
  54:	0c 94 5b 00 	jmp	0xb6	; 0xb6 <__bad_interrupt>
  58:	0c 94 c1 01 	jmp	0x382	; 0x382 <__vector_22>
  5c:	0c 94 83 01 	jmp	0x306	; 0x306 <__vector_23>
  60:	0c 94 5d 01 	jmp	0x2ba	; 0x2ba <__vector_24>
  64:	0c 94 5b 00 	jmp	0xb6	; 0xb6 <__bad_interrupt>
  68:	0c 94 5b 00 	jmp	0xb6	; 0xb6 <__bad_interrupt>
  6c:	0c 94 87 00 	jmp	0x10e	; 0x10e <__vector_27>
  70:	0c 94 5b 00 	jmp	0xb6	; 0xb6 <__bad_interrupt>
  74:	0c 94 5b 00 	jmp	0xb6	; 0xb6 <__bad_interrupt>
  78:	0c 94 5b 00 	jmp	0xb6	; 0xb6 <__bad_interrupt>

0000007c <__ctors_end>:
  7c:	11 24       	eor	r1, r1
  7e:	1f be       	out	0x3f, r1	; 63
  80:	cf ef       	ldi	r28, 0xFF	; 255
  82:	d8 e0       	ldi	r29, 0x08	; 8
  84:	de bf       	out	0x3e, r29	; 62
  86:	cd bf       	out	0x3d, r28	; 61

00000088 <__do_copy_data>:
  88:	11 e0       	ldi	r17, 0x01	; 1
  8a:	a0 e0       	ldi	r26, 0x00	; 0
  8c:	b1 e0       	ldi	r27, 0x01	; 1
  8e:	e6 e0       	ldi	r30, 0x06	; 6
  90:	f9 e0       	ldi	r31, 0x09	; 9
  92:	02 c0       	rjmp	.+4      	; 0x98 <__do_copy_data+0x10>
  94:	05 90       	lpm	r0, Z+
  96:	0d 92       	st	X+, r0
  98:	a4 30       	cpi	r26, 0x04	; 4
  9a:	b1 07       	cpc	r27, r17
  9c:	d9 f7       	brne	.-10     	; 0x94 <__do_copy_data+0xc>

0000009e <__do_clear_bss>:
  9e:	21 e0       	ldi	r18, 0x01	; 1
  a0:	a4 e0       	ldi	r26, 0x04	; 4
  a2:	b1 e0       	ldi	r27, 0x01	; 1
  a4:	01 c0       	rjmp	.+2      	; 0xa8 <.do_clear_bss_start>

000000a6 <.do_clear_bss_loop>:
  a6:	1d 92       	st	X+, r1

000000a8 <.do_clear_bss_start>:
  a8:	a4 33       	cpi	r26, 0x34	; 52
  aa:	b2 07       	cpc	r27, r18
  ac:	e1 f7       	brne	.-8      	; 0xa6 <.do_clear_bss_loop>
  ae:	0e 94 1c 02 	call	0x438	; 0x438 <main>
  b2:	0c 94 81 04 	jmp	0x902	; 0x902 <_exit>

000000b6 <__bad_interrupt>:
  b6:	0c 94 00 00 	jmp	0	; 0x0 <__vectors>

000000ba <a4910_init>:
	//RESETn (pin PB4): pull high to enable A4910
	//DIAG   (pin PC7): A4910 outputs fault conditions on this line

#include "grBLDC.h"

void a4910_init(void)   { (DDRB |= (1<<DDB4)); } //set A4910 reset pin to output
  ba:	24 9a       	sbi	0x04, 4	; 4
  bc:	08 95       	ret

000000be <a4910_disable>:

//////////////////////////////////////////////////////////////////////////////////////////////////

void a4910_disable(void) { (PORTB &= ~(1<<PORTB4)); } //set RESETn pin low
  be:	2c 98       	cbi	0x05, 4	; 5
  c0:	08 95       	ret

000000c2 <a4910_enable>:
  c2:	2c 9a       	sbi	0x05, 4	; 5
  c4:	08 95       	ret

000000c6 <filteredValue_counts>:

    static uint16_t lastN_samples[NUM_ADC_SAMPLES_TO_AVERAGE] = {0};

    static uint8_t index_latestSample = 0;

    lastN_samples[index_latestSample] = latest10bSample; //store latest sample
  c6:	20 91 24 01 	lds	r18, 0x0124	; 0x800124 <index_latestSample.2068>
  ca:	e2 2f       	mov	r30, r18
  cc:	f0 e0       	ldi	r31, 0x00	; 0
  ce:	ee 0f       	add	r30, r30
  d0:	ff 1f       	adc	r31, r31
  d2:	ec 5f       	subi	r30, 0xFC	; 252
  d4:	fe 4f       	sbci	r31, 0xFE	; 254
  d6:	91 83       	std	Z+1, r25	; 0x01
  d8:	80 83       	st	Z, r24
    if(++index_latestSample == NUM_ADC_SAMPLES_TO_AVERAGE) { index_latestSample = 0; } //circular buffer rollover
  da:	2f 5f       	subi	r18, 0xFF	; 255
  dc:	20 31       	cpi	r18, 0x10	; 16
  de:	19 f0       	breq	.+6      	; 0xe6 <filteredValue_counts+0x20>
  e0:	20 93 24 01 	sts	0x0124, r18	; 0x800124 <index_latestSample.2068>
  e4:	02 c0       	rjmp	.+4      	; 0xea <filteredValue_counts+0x24>
  e6:	10 92 24 01 	sts	0x0124, r1	; 0x800124 <index_latestSample.2068>
  ea:	e4 e0       	ldi	r30, 0x04	; 4
  ec:	f1 e0       	ldi	r31, 0x01	; 1

    uint16_t sumOfArrayElements = 0;
  ee:	80 e0       	ldi	r24, 0x00	; 0
  f0:	90 e0       	ldi	r25, 0x00	; 0

    for(uint8_t ii=0; ii<NUM_ADC_SAMPLES_TO_AVERAGE; ii++) { sumOfArrayElements += lastN_samples[ii]; }
  f2:	21 91       	ld	r18, Z+
  f4:	31 91       	ld	r19, Z+
  f6:	82 0f       	add	r24, r18
  f8:	93 1f       	adc	r25, r19
  fa:	21 e0       	ldi	r18, 0x01	; 1
  fc:	e4 32       	cpi	r30, 0x24	; 36
  fe:	f2 07       	cpc	r31, r18
 100:	c1 f7       	brne	.-16     	; 0xf2 <filteredValue_counts+0x2c>

    return (sumOfArrayElements>>POWER_OF__NUM_ADC_SAMPLES_TO_AVERAGE);
#else
	return latest10bSample;
#endif
}
 102:	24 e0       	ldi	r18, 0x04	; 4
 104:	96 95       	lsr	r25
 106:	87 95       	ror	r24
 108:	2a 95       	dec	r18
 10a:	e1 f7       	brne	.-8      	; 0x104 <filteredValue_counts+0x3e>
 10c:	08 95       	ret

0000010e <__vector_27>:

//Interrupt generated each time ADC conversion finishes
//using an interrupt so we can add other ADC channels later
//with just one channel, we could set the ADC to free running mode (and remove this ISR)
ISR(ADC_vect)
{
 10e:	1f 92       	push	r1
 110:	0f 92       	push	r0
 112:	0f b6       	in	r0, 0x3f	; 63
 114:	0f 92       	push	r0
 116:	11 24       	eor	r1, r1
 118:	2f 93       	push	r18
 11a:	3f 93       	push	r19
 11c:	4f 93       	push	r20
 11e:	5f 93       	push	r21
 120:	6f 93       	push	r22
 122:	7f 93       	push	r23
 124:	8f 93       	push	r24
 126:	9f 93       	push	r25
 128:	af 93       	push	r26
 12a:	bf 93       	push	r27
 12c:	ef 93       	push	r30
 12e:	ff 93       	push	r31
  if(ADC_stateMachine == ADC_MEASURING_GOAL_RPM)
 130:	80 91 00 01 	lds	r24, 0x0100	; 0x800100 <ADC_stateMachine>
 134:	81 30       	cpi	r24, 0x01	; 1
 136:	c1 f4       	brne	.+48     	; 0x168 <__vector_27+0x5a>
  {
	uint16_t adcResult_counts = Adc_get_10_bits_result(); //~520 counts max (grBLDC goalRPM has DIV2 voltage divider LPF)
 138:	20 91 78 00 	lds	r18, 0x0078	; 0x800078 <__TEXT_REGION_LENGTH__+0x7f8078>
 13c:	80 91 79 00 	lds	r24, 0x0079	; 0x800079 <__TEXT_REGION_LENGTH__+0x7f8079>
 140:	90 e0       	ldi	r25, 0x00	; 0
 142:	98 2f       	mov	r25, r24
 144:	88 27       	eor	r24, r24

	adcResult_counts = filteredValue_counts(adcResult_counts);
 146:	82 0f       	add	r24, r18
 148:	91 1d       	adc	r25, r1
 14a:	0e 94 63 00 	call	0xc6	; 0xc6 <filteredValue_counts>

uint16_t adc_goalRPM_get(void) { return goalSpeed_RPM; }

////////////////////////////////////////////////////////////////////////////////////////

void adc_goalRPM_set(uint16_t newRPM) { goalSpeed_RPM = newRPM; }
 14e:	2e e0       	ldi	r18, 0x0E	; 14
 150:	ac 01       	movw	r20, r24
 152:	24 9f       	mul	r18, r20
 154:	c0 01       	movw	r24, r0
 156:	25 9f       	mul	r18, r21
 158:	90 0d       	add	r25, r0
 15a:	11 24       	eor	r1, r1
 15c:	80 5b       	subi	r24, 0xB0	; 176
 15e:	9a 4f       	sbci	r25, 0xFA	; 250
 160:	90 93 27 01 	sts	0x0127, r25	; 0x800127 <goalSpeed_RPM+0x1>
 164:	80 93 26 01 	sts	0x0126, r24	; 0x800126 <goalSpeed_RPM>
    adc_goalRPM_set(adcResultScaled_goalRPM);
  }

  // else if(ADC_stateMachine == ADC_MEASURING_CURRENT)
  
  ADC_hardwareStatus = ADCFREE;
 168:	10 92 25 01 	sts	0x0125, r1	; 0x800125 <ADC_hardwareStatus>
}
 16c:	ff 91       	pop	r31
 16e:	ef 91       	pop	r30
 170:	bf 91       	pop	r27
 172:	af 91       	pop	r26
 174:	9f 91       	pop	r25
 176:	8f 91       	pop	r24
 178:	7f 91       	pop	r23
 17a:	6f 91       	pop	r22
 17c:	5f 91       	pop	r21
 17e:	4f 91       	pop	r20
 180:	3f 91       	pop	r19
 182:	2f 91       	pop	r18
 184:	0f 90       	pop	r0
 186:	0f be       	out	0x3f, r0	; 63
 188:	0f 90       	pop	r0
 18a:	1f 90       	pop	r1
 18c:	18 95       	reti

0000018e <adc_init>:

//////////////////////////////////////////////////////////////////////////////////////////////////

void adc_init(void)
{
 18e:	cf 93       	push	r28
 190:	df 93       	push	r29
  //disable digital input circuitry on all pins used as analog inputs.
  //reduces power consumption, particularly when an analog signal is near Vcc/2.
  DIDR1 |= (1<<ADC9D)|(1<<ADC8D); //CUR_C & CUR_B ADC inputs
 192:	ef e7       	ldi	r30, 0x7F	; 127
 194:	f0 e0       	ldi	r31, 0x00	; 0
 196:	80 81       	ld	r24, Z
 198:	83 60       	ori	r24, 0x03	; 3
 19a:	80 83       	st	Z, r24
  DIDR0 |= (1<<ADC6D)|(1<<ADC5D); //CUR_A & goalRPM ADC inputs
 19c:	ee e7       	ldi	r30, 0x7E	; 126
 19e:	f0 e0       	ldi	r31, 0x00	; 0
 1a0:	80 81       	ld	r24, Z
 1a2:	80 66       	ori	r24, 0x60	; 96
 1a4:	80 83       	st	Z, r24
  //CUR_A   is Pin PB5/ADC6
  //CUR_B   is Pin PC5/ADC9
  //CUR_C   is Pin PC4/ADC8
  //goalRPM is PIN PB2/ADC5

  Adc_enable();
 1a6:	ea e7       	ldi	r30, 0x7A	; 122
 1a8:	f0 e0       	ldi	r31, 0x00	; 0
 1aa:	80 81       	ld	r24, Z
 1ac:	80 68       	ori	r24, 0x80	; 128
 1ae:	80 83       	st	Z, r24
  Adc_set_prescaler(ADC_DIV_CLOCK_BY_4);
 1b0:	80 81       	ld	r24, Z
 1b2:	88 7f       	andi	r24, 0xF8	; 248
 1b4:	80 83       	st	Z, r24
 1b6:	80 81       	ld	r24, Z
 1b8:	82 60       	ori	r24, 0x02	; 2
 1ba:	80 83       	st	Z, r24

  Adc_enable_vcc_vref();
 1bc:	ac e7       	ldi	r26, 0x7C	; 124
 1be:	b0 e0       	ldi	r27, 0x00	; 0
 1c0:	8c 91       	ld	r24, X
 1c2:	8f 77       	andi	r24, 0x7F	; 127
 1c4:	8c 93       	st	X, r24
 1c6:	8c 91       	ld	r24, X
 1c8:	80 64       	ori	r24, 0x40	; 64
 1ca:	8c 93       	st	X, r24
  ADCSRB |= (1<<AREFEN); //connect AREF pin to the internal analog reference.
 1cc:	cb e7       	ldi	r28, 0x7B	; 123
 1ce:	d0 e0       	ldi	r29, 0x00	; 0
 1d0:	88 81       	ld	r24, Y
 1d2:	80 62       	ori	r24, 0x20	; 32
 1d4:	88 83       	st	Y, r24
  ADCSRB &= ~(1<<ISRCEN); //disable 100 uA current source on AREF pin.
 1d6:	88 81       	ld	r24, Y
 1d8:	8f 7b       	andi	r24, 0xBF	; 191
 1da:	88 83       	st	Y, r24

  Adc_select_channel(ADC_INPUT_ADC5);  //goalRPM
 1dc:	8c 91       	ld	r24, X
 1de:	80 7e       	andi	r24, 0xE0	; 224
 1e0:	85 60       	ori	r24, 0x05	; 5
 1e2:	8c 93       	st	X, r24

  Adc_right_adjust_result(); //0b------xx xxxxxxxx
 1e4:	8c 91       	ld	r24, X
 1e6:	8f 7d       	andi	r24, 0xDF	; 223
 1e8:	8c 93       	st	X, r24
  Adc_enable_high_speed_mode();
 1ea:	88 81       	ld	r24, Y
 1ec:	80 68       	ori	r24, 0x80	; 128
 1ee:	88 83       	st	Y, r24
  adc_generateInterruptAfterConversion(); 
 1f0:	80 81       	ld	r24, Z
 1f2:	88 60       	ori	r24, 0x08	; 8
 1f4:	80 83       	st	Z, r24
}
 1f6:	df 91       	pop	r29
 1f8:	cf 91       	pop	r28
 1fa:	08 95       	ret

000001fc <adc_scheduler>:

//////////////////////////////////////////////////////////////////////////////////////////////////

void adc_scheduler(uint8_t channel)
{ 
  if(ADC_hardwareStatus == ADCFREE)
 1fc:	90 91 25 01 	lds	r25, 0x0125	; 0x800125 <ADC_hardwareStatus>
 200:	91 11       	cpse	r25, r1
 202:	12 c0       	rjmp	.+36     	; 0x228 <adc_scheduler+0x2c>
  {
    ADC_hardwareStatus = ADCBUSY;
 204:	91 e0       	ldi	r25, 0x01	; 1
 206:	90 93 25 01 	sts	0x0125, r25	; 0x800125 <ADC_hardwareStatus>

    switch(channel)
 20a:	81 30       	cpi	r24, 0x01	; 1
 20c:	69 f4       	brne	.+26     	; 0x228 <adc_scheduler+0x2c>
    {
      case ADC_MEASURING_GOAL_RPM:
        Adc_start_conv_channel(ADC_INPUT_ADC5); //configure ADC to measure desired RPM (from grbl)
 20e:	90 91 7c 00 	lds	r25, 0x007C	; 0x80007c <__TEXT_REGION_LENGTH__+0x7f807c>
 212:	90 7e       	andi	r25, 0xE0	; 224
 214:	95 60       	ori	r25, 0x05	; 5
 216:	90 93 7c 00 	sts	0x007C, r25	; 0x80007c <__TEXT_REGION_LENGTH__+0x7f807c>
 21a:	90 91 7a 00 	lds	r25, 0x007A	; 0x80007a <__TEXT_REGION_LENGTH__+0x7f807a>
 21e:	90 64       	ori	r25, 0x40	; 64
 220:	90 93 7a 00 	sts	0x007A, r25	; 0x80007a <__TEXT_REGION_LENGTH__+0x7f807a>
        ADC_stateMachine = ADC_MEASURING_GOAL_RPM;
 224:	80 93 00 01 	sts	0x0100, r24	; 0x800100 <ADC_stateMachine>
 228:	08 95       	ret

0000022a <adc_goalRPM_get>:
  }
}

////////////////////////////////////////////////////////////////////////////////////////

uint16_t adc_goalRPM_get(void) { return goalSpeed_RPM; }
 22a:	80 91 26 01 	lds	r24, 0x0126	; 0x800126 <goalSpeed_RPM>
 22e:	90 91 27 01 	lds	r25, 0x0127	; 0x800127 <goalSpeed_RPM+0x1>
 232:	08 95       	ret

00000234 <adc_goalRPM_set>:

////////////////////////////////////////////////////////////////////////////////////////

void adc_goalRPM_set(uint16_t newRPM) { goalSpeed_RPM = newRPM; }
 234:	90 93 27 01 	sts	0x0127, r25	; 0x800127 <goalSpeed_RPM+0x1>
 238:	80 93 26 01 	sts	0x0126, r24	; 0x800126 <goalSpeed_RPM>
 23c:	08 95       	ret

0000023e <unoPinA4_high>:
#include "grBLDC.h"

void unoPinA4_high(void) { SLOWDOWN_DDR |= SLOWDOWN_MASK; SLOWDOWN_PORT |= SLOWDOWN_MASK; }
 23e:	3b 9a       	sbi	0x07, 3	; 7
 240:	43 9a       	sbi	0x08, 3	; 8
 242:	08 95       	ret

00000244 <unoPinA2_high>:
void unoPinA2_high(void) {      PD3_DDR |=      PD3_MASK;      PD3_PORT |=      PD3_MASK; }
 244:	53 9a       	sbi	0x0a, 3	; 10
 246:	5b 9a       	sbi	0x0b, 3	; 11
 248:	08 95       	ret

0000024a <unoPinA4_low>:

void unoPinA4_low(void) { SLOWDOWN_PORT &= ~(SLOWDOWN_MASK); }
 24a:	43 98       	cbi	0x08, 3	; 8
 24c:	08 95       	ret

0000024e <unoPinA2_low>:
 24e:	5b 98       	cbi	0x0b, 3	; 11
 250:	08 95       	ret

00000252 <hall_init>:

void hall_init(void)
{
  // Use PCINT17 to detect change on H1 (A) sensor
  // Use PCINT18 to detect change on H3 (C) sensor
  PCMSK2 = ( (1<<PCINT17) | (1<<PCINT18) );
 252:	86 e0       	ldi	r24, 0x06	; 6
 254:	80 93 6c 00 	sts	0x006C, r24	; 0x80006c <__TEXT_REGION_LENGTH__+0x7f806c>

  // Use PCINT9 to detect change on H2 (B) sensor
  PCMSK1 = (1<<PCINT9);
 258:	82 e0       	ldi	r24, 0x02	; 2
 25a:	80 93 6b 00 	sts	0x006B, r24	; 0x80006b <__TEXT_REGION_LENGTH__+0x7f806b>
  
  // Enable pin change interrupts on PCMSK1 & 2
  PCICR |= ( (1<<PCIE1) | (1<<PCIE2) );
 25e:	e8 e6       	ldi	r30, 0x68	; 104
 260:	f0 e0       	ldi	r31, 0x00	; 0
 262:	80 81       	ld	r24, Z
 264:	86 60       	ori	r24, 0x06	; 6
 266:	80 83       	st	Z, r24
 268:	08 95       	ret

0000026a <hall_getPosition>:
{
  static uint8_t state_previous = 0;
  static uint8_t numConsecutiveInvalidStates = 0;	
	  
  //Example: if Hall GRN & YEL are high, the result is 0b00000110
  uint8_t state = ( (( (PIND & (1<<PIND1)) >> PIND1) << 2) |  //Hall BLU //LSB
 26a:	69 b1       	in	r22, 0x09	; 9
                    (( (PINC & (1<<PINC1)) >> PINC1) << 0) |  //Hall YEL
 26c:	96 b1       	in	r25, 0x06	; 6
                    (( (PIND & (1<<PIND2)) >> PIND2) << 1) ); //Hall GRN //MSB
 26e:	89 b1       	in	r24, 0x09	; 9
{
  static uint8_t state_previous = 0;
  static uint8_t numConsecutiveInvalidStates = 0;	
	  
  //Example: if Hall GRN & YEL are high, the result is 0b00000110
  uint8_t state = ( (( (PIND & (1<<PIND1)) >> PIND1) << 2) |  //Hall BLU //LSB
 270:	61 fb       	bst	r22, 1
 272:	44 27       	eor	r20, r20
 274:	40 f9       	bld	r20, 0
 276:	50 e0       	ldi	r21, 0x00	; 0
 278:	44 0f       	add	r20, r20
 27a:	55 1f       	adc	r21, r21
 27c:	44 0f       	add	r20, r20
 27e:	55 1f       	adc	r21, r21
 280:	82 fb       	bst	r24, 2
 282:	22 27       	eor	r18, r18
 284:	20 f9       	bld	r18, 0
 286:	30 e0       	ldi	r19, 0x00	; 0
 288:	22 0f       	add	r18, r18
 28a:	33 1f       	adc	r19, r19
 28c:	24 2b       	or	r18, r20
 28e:	96 95       	lsr	r25
 290:	91 70       	andi	r25, 0x01	; 1
 292:	82 2f       	mov	r24, r18
 294:	89 2b       	or	r24, r25
                    (( (PINC & (1<<PINC1)) >> PINC1) << 0) |  //Hall YEL
                    (( (PIND & (1<<PIND2)) >> PIND2) << 1) ); //Hall GRN //MSB

  if( ((state == 0b00000000) || (state == 0b00000111)) && //invalid Hall state (due to H->L or L->H transition)
 296:	11 f0       	breq	.+4      	; 0x29c <hall_getPosition+0x32>
 298:	87 30       	cpi	r24, 0x07	; 7
 29a:	51 f4       	brne	.+20     	; 0x2b0 <hall_getPosition+0x46>
      (numConsecutiveInvalidStates < 10)                ) 
 29c:	90 91 2a 01 	lds	r25, 0x012A	; 0x80012a <numConsecutiveInvalidStates.2068>
  //Example: if Hall GRN & YEL are high, the result is 0b00000110
  uint8_t state = ( (( (PIND & (1<<PIND1)) >> PIND1) << 2) |  //Hall BLU //LSB
                    (( (PINC & (1<<PINC1)) >> PINC1) << 0) |  //Hall YEL
                    (( (PIND & (1<<PIND2)) >> PIND2) << 1) ); //Hall GRN //MSB

  if( ((state == 0b00000000) || (state == 0b00000111)) && //invalid Hall state (due to H->L or L->H transition)
 2a0:	9a 30       	cpi	r25, 0x0A	; 10
 2a2:	30 f4       	brcc	.+12     	; 0x2b0 <hall_getPosition+0x46>
      (numConsecutiveInvalidStates < 10)                ) 
  {
	  //hall states in transition
	  state = state_previous;
 2a4:	80 91 29 01 	lds	r24, 0x0129	; 0x800129 <state_previous.2067>
	  numConsecutiveInvalidStates++;
 2a8:	9f 5f       	subi	r25, 0xFF	; 255
 2aa:	90 93 2a 01 	sts	0x012A, r25	; 0x80012a <numConsecutiveInvalidStates.2068>
 2ae:	08 95       	ret
  } 
  else //valid Hall state (or motor is stalled)
  {
	  state_previous = state; //store for next iteration
 2b0:	80 93 29 01 	sts	0x0129, r24	; 0x800129 <state_previous.2067>
	  numConsecutiveInvalidStates = 0;
 2b4:	10 92 2a 01 	sts	0x012A, r1	; 0x80012a <numConsecutiveInvalidStates.2068>
  } 
	  
  return state;
}
 2b8:	08 95       	ret

000002ba <__vector_24>:

////////////////////////////////////////////////////////////////////////////////////////

//Configure interrupt vectors (each time a hall sensor state changes)
ISR( HALL_AC_vect )  //Hall_A & Hall_C share the same interrupt vector byte
{
 2ba:	1f 92       	push	r1
 2bc:	0f 92       	push	r0
 2be:	0f b6       	in	r0, 0x3f	; 63
 2c0:	0f 92       	push	r0
 2c2:	11 24       	eor	r1, r1
 2c4:	2f 93       	push	r18
 2c6:	3f 93       	push	r19
 2c8:	4f 93       	push	r20
 2ca:	5f 93       	push	r21
 2cc:	6f 93       	push	r22
 2ce:	7f 93       	push	r23
 2d0:	8f 93       	push	r24
 2d2:	9f 93       	push	r25
 2d4:	af 93       	push	r26
 2d6:	bf 93       	push	r27
 2d8:	ef 93       	push	r30
 2da:	ff 93       	push	r31
  psc_commutateOutputWaveforms( pid_dutyCycle_get() );
 2dc:	0e 94 6d 02 	call	0x4da	; 0x4da <pid_dutyCycle_get>
 2e0:	0e 94 f8 02 	call	0x5f0	; 0x5f0 <psc_commutateOutputWaveforms>
}
 2e4:	ff 91       	pop	r31
 2e6:	ef 91       	pop	r30
 2e8:	bf 91       	pop	r27
 2ea:	af 91       	pop	r26
 2ec:	9f 91       	pop	r25
 2ee:	8f 91       	pop	r24
 2f0:	7f 91       	pop	r23
 2f2:	6f 91       	pop	r22
 2f4:	5f 91       	pop	r21
 2f6:	4f 91       	pop	r20
 2f8:	3f 91       	pop	r19
 2fa:	2f 91       	pop	r18
 2fc:	0f 90       	pop	r0
 2fe:	0f be       	out	0x3f, r0	; 63
 300:	0f 90       	pop	r0
 302:	1f 90       	pop	r1
 304:	18 95       	reti

00000306 <__vector_23>:

////////////////////////////////////////////////////////////////////////////////////////

ISR( HALL_B_vect )
{
 306:	1f 92       	push	r1
 308:	0f 92       	push	r0
 30a:	0f b6       	in	r0, 0x3f	; 63
 30c:	0f 92       	push	r0
 30e:	11 24       	eor	r1, r1
 310:	2f 93       	push	r18
 312:	3f 93       	push	r19
 314:	4f 93       	push	r20
 316:	5f 93       	push	r21
 318:	6f 93       	push	r22
 31a:	7f 93       	push	r23
 31c:	8f 93       	push	r24
 31e:	9f 93       	push	r25
 320:	af 93       	push	r26
 322:	bf 93       	push	r27
 324:	ef 93       	push	r30
 326:	ff 93       	push	r31
  psc_commutateOutputWaveforms( pid_dutyCycle_get() );
 328:	0e 94 6d 02 	call	0x4da	; 0x4da <pid_dutyCycle_get>
 32c:	0e 94 f8 02 	call	0x5f0	; 0x5f0 <psc_commutateOutputWaveforms>

  uint8_t hallB_state = 0;
  static uint8_t hallB_state_previous = 0;

  //determine hallB state (high or low)
  if (PINC & (1<<PINC1) ) { hallB_state = HALL_B_HIGH; }
 330:	31 99       	sbic	0x06, 1	; 6
 332:	02 c0       	rjmp	.+4      	; 0x338 <__vector_23+0x32>
  else                    { hallB_state = HALL_B_LOW;  }
 334:	80 e0       	ldi	r24, 0x00	; 0
 336:	09 c0       	rjmp	.+18     	; 0x34a <__vector_23+0x44>

  if(hallB_state == HALL_B_HIGH)
  {
    if(hallB_state_previous == HALL_B_LOW) 
 338:	80 91 28 01 	lds	r24, 0x0128	; 0x800128 <hallB_state_previous.2081>
 33c:	81 11       	cpse	r24, r1
 33e:	04 c0       	rjmp	.+8      	; 0x348 <__vector_23+0x42>
    {
      //rising edge just occurred on Hall B
      timing_calculateRPM();
 340:	0e 94 42 04 	call	0x884	; 0x884 <timing_calculateRPM>
	  pid_dutyCycle_calculate();
 344:	0e 94 73 02 	call	0x4e6	; 0x4e6 <pid_dutyCycle_calculate>

  uint8_t hallB_state = 0;
  static uint8_t hallB_state_previous = 0;

  //determine hallB state (high or low)
  if (PINC & (1<<PINC1) ) { hallB_state = HALL_B_HIGH; }
 348:	81 e0       	ldi	r24, 0x01	; 1
      timing_calculateRPM();
	  pid_dutyCycle_calculate();
    }
  }

  hallB_state_previous = hallB_state;
 34a:	80 93 28 01 	sts	0x0128, r24	; 0x800128 <hallB_state_previous.2081>
}
 34e:	ff 91       	pop	r31
 350:	ef 91       	pop	r30
 352:	bf 91       	pop	r27
 354:	af 91       	pop	r26
 356:	9f 91       	pop	r25
 358:	8f 91       	pop	r24
 35a:	7f 91       	pop	r23
 35c:	6f 91       	pop	r22
 35e:	5f 91       	pop	r21
 360:	4f 91       	pop	r20
 362:	3f 91       	pop	r19
 364:	2f 91       	pop	r18
 366:	0f 90       	pop	r0
 368:	0f be       	out	0x3f, r0	; 63
 36a:	0f 90       	pop	r0
 36c:	1f 90       	pop	r1
 36e:	18 95       	reti

00000370 <interface_init>:
/////////////////////////////////////////////////////////////////////////////////////////////////////////

void interface_init(void)
{
  // Use PCINT3 to detect change on PB3 (direction pin)
  PCMSK0 = (1<<PCINT3);
 370:	88 e0       	ldi	r24, 0x08	; 8
 372:	80 93 6a 00 	sts	0x006A, r24	; 0x80006a <__TEXT_REGION_LENGTH__+0x7f806a>
  
  // Enable pin change interrupts on PCMSK0
  PCICR |= (1<<PCIE0);
 376:	e8 e6       	ldi	r30, 0x68	; 104
 378:	f0 e0       	ldi	r31, 0x00	; 0
 37a:	80 81       	ld	r24, Z
 37c:	81 60       	ori	r24, 0x01	; 1
 37e:	80 83       	st	Z, r24
 380:	08 95       	ret

00000382 <__vector_22>:
}

/////////////////////////////////////////////////////////////////////////////////////////////////////////

ISR( DIRECTION_PIN_CHANGE_vect )
{
 382:	1f 92       	push	r1
 384:	0f 92       	push	r0
 386:	0f b6       	in	r0, 0x3f	; 63
 388:	0f 92       	push	r0
 38a:	11 24       	eor	r1, r1
 38c:	8f 93       	push	r24
  goalRPM_status = GOALRPM_LPF_CHANGING;
 38e:	82 e0       	ldi	r24, 0x02	; 2
 390:	80 93 02 01 	sts	0x0102, r24	; 0x800102 <goalRPM_status>
}
 394:	8f 91       	pop	r24
 396:	0f 90       	pop	r0
 398:	0f be       	out	0x3f, r0	; 63
 39a:	0f 90       	pop	r0
 39c:	1f 90       	pop	r1
 39e:	18 95       	reti

000003a0 <interface_checkForDirectionChange>:

/////////////////////////////////////////////////////////////////////////////////////////////////////////

//see if the direction pin has changed
void interface_checkForDirectionChange(void)
{
 3a0:	cf 93       	push	r28
 3a2:	df 93       	push	r29
	static uint8_t grblDirection_previous = 2;
	uint8_t grblDirection_now = ((PINB & (1<<PINB3)) >> (PINB3)); //0: CW (M3) //1: CCW (M4)
 3a4:	c3 b1       	in	r28, 0x03	; 3
 3a6:	c3 fb       	bst	r28, 3
 3a8:	cc 27       	eor	r28, r28
 3aa:	c0 f9       	bld	r28, 0
 3ac:	dc 2f       	mov	r29, r28

	if(grblDirection_now != grblDirection_previous)
 3ae:	80 91 01 01 	lds	r24, 0x0101	; 0x800101 <grblDirection_previous.2076>
 3b2:	c8 17       	cp	r28, r24
 3b4:	b1 f0       	breq	.+44     	; 0x3e2 <interface_checkForDirectionChange+0x42>
	{
		while(timing_measuredRPM_get() > 500) { a4910_disable(); } //coast motor until it slows down enough to change direction
 3b6:	0e 94 55 04 	call	0x8aa	; 0x8aa <timing_measuredRPM_get>
 3ba:	85 3f       	cpi	r24, 0xF5	; 245
 3bc:	91 40       	sbci	r25, 0x01	; 1
 3be:	18 f0       	brcs	.+6      	; 0x3c6 <interface_checkForDirectionChange+0x26>
 3c0:	0e 94 5f 00 	call	0xbe	; 0xbe <a4910_disable>
 3c4:	f8 cf       	rjmp	.-16     	; 0x3b6 <interface_checkForDirectionChange+0x16>

		a4910_enable(); //turn FETs back on
 3c6:	0e 94 61 00 	call	0xc2	; 0xc2 <a4910_enable>

		if(grblDirection_now == 0) { motor_direction_set(MOTOR_CW); }
 3ca:	d1 11       	cpse	r29, r1
 3cc:	02 c0       	rjmp	.+4      	; 0x3d2 <interface_checkForDirectionChange+0x32>
 3ce:	82 e0       	ldi	r24, 0x02	; 2
 3d0:	01 c0       	rjmp	.+2      	; 0x3d4 <interface_checkForDirectionChange+0x34>
		else                       { motor_direction_set(MOTOR_CCW); }
 3d2:	81 e0       	ldi	r24, 0x01	; 1
 3d4:	0e 94 64 02 	call	0x4c8	; 0x4c8 <motor_direction_set>
			
		pid_dutyCycle_set(0);
 3d8:	80 e0       	ldi	r24, 0x00	; 0
 3da:	0e 94 70 02 	call	0x4e0	; 0x4e0 <pid_dutyCycle_set>
		//adc_goalRPM_set(0); //don't set this here //ADC won't sample again until next grbl interrupt occurs (e.g. 'S3000')

		grblDirection_previous = grblDirection_now;
 3de:	c0 93 01 01 	sts	0x0101, r28	; 0x800101 <grblDirection_previous.2076>
	}
} 
 3e2:	df 91       	pop	r29
 3e4:	cf 91       	pop	r28
 3e6:	08 95       	ret

000003e8 <interface_handler>:

/////////////////////////////////////////////////////////////////////////////////////////////////////////

void interface_handler(void)
{
	if (goalRPM_status == GOALRPM_LPF_CHANGING) //set inside interrupt when grbl direction pin toggles
 3e8:	80 91 02 01 	lds	r24, 0x0102	; 0x800102 <goalRPM_status>
 3ec:	82 30       	cpi	r24, 0x02	; 2
 3ee:	f9 f4       	brne	.+62     	; 0x42e <__EEPROM_REGION_LENGTH__+0x2e>
	{
		unoPinA2_high(); //debug
 3f0:	0e 94 22 01 	call	0x244	; 0x244 <unoPinA2_high>

		adc_scheduler(ADC_MEASURING_GOAL_RPM);
 3f4:	81 e0       	ldi	r24, 0x01	; 1
 3f6:	0e 94 fe 00 	call	0x1fc	; 0x1fc <adc_scheduler>
		
		if(motor_state_get() == STOPPED) { motor_run(); } //JTS2doNow: Where should this go?
 3fa:	0e 94 48 02 	call	0x490	; 0x490 <motor_state_get>
 3fe:	81 11       	cpse	r24, r1
 400:	02 c0       	rjmp	.+4      	; 0x406 <__EEPROM_REGION_LENGTH__+0x6>
 402:	0e 94 59 02 	call	0x4b2	; 0x4b2 <motor_run>
		#define GOALRPM_LPF_SETTLING_TIME_us 40000 //lowpass filter settles in 30 ms... wait longer
		#define NUM_ITERATIONS_FOR_LPF_TO_SETTLE (GOALRPM_LPF_SETTLING_TIME_us / CONTROL_LOOP_PERIOD_us) //division handled to pre-processor

		static uint16_t iterationCount = 0;

		if(++iterationCount > NUM_ITERATIONS_FOR_LPF_TO_SETTLE)
 406:	80 91 2b 01 	lds	r24, 0x012B	; 0x80012b <iterationCount.2084>
 40a:	90 91 2c 01 	lds	r25, 0x012C	; 0x80012c <iterationCount.2084+0x1>
 40e:	01 96       	adiw	r24, 0x01	; 1
 410:	90 93 2c 01 	sts	0x012C, r25	; 0x80012c <iterationCount.2084+0x1>
 414:	80 93 2b 01 	sts	0x012B, r24	; 0x80012b <iterationCount.2084>
 418:	83 3e       	cpi	r24, 0xE3	; 227
 41a:	94 40       	sbci	r25, 0x04	; 4
 41c:	60 f0       	brcs	.+24     	; 0x436 <__EEPROM_REGION_LENGTH__+0x36>
		{
			goalRPM_status = GOALRPM_LPF_SETTLED;
 41e:	81 e0       	ldi	r24, 0x01	; 1
 420:	80 93 02 01 	sts	0x0102, r24	; 0x800102 <goalRPM_status>
			iterationCount = 0;
 424:	10 92 2c 01 	sts	0x012C, r1	; 0x80012c <iterationCount.2084+0x1>
 428:	10 92 2b 01 	sts	0x012B, r1	; 0x80012b <iterationCount.2084>
 42c:	08 95       	ret
		}
	}
	else
	{
		unoPinA2_low(); //debug
 42e:	0e 94 27 01 	call	0x24e	; 0x24e <unoPinA2_low>

		interface_checkForDirectionChange();
 432:	0c 94 d0 01 	jmp	0x3a0	; 0x3a0 <interface_checkForDirectionChange>
 436:	08 95       	ret

00000438 <main>:
#include "grBLDC.h"

int main(void)
{
  psc_init();
 438:	0e 94 a7 02 	call	0x54e	; 0x54e <psc_init>
  adc_init();
 43c:	0e 94 c7 00 	call	0x18e	; 0x18e <adc_init>
  motor_init();
 440:	0e 94 4f 02 	call	0x49e	; 0x49e <motor_init>
  hall_init();
 444:	0e 94 29 01 	call	0x252	; 0x252 <hall_init>
  a4910_init(); //configure pin to digital output
 448:	0e 94 5d 00 	call	0xba	; 0xba <a4910_init>
  timing_timer0_init();
 44c:	0e 94 13 04 	call	0x826	; 0x826 <timing_timer0_init>
  timing_timer1_init();
 450:	0e 94 2b 04 	call	0x856	; 0x856 <timing_timer1_init>
  interface_init();
 454:	0e 94 b8 01 	call	0x370	; 0x370 <interface_init>

  Start_pll_64_mega(); // Start the 64 MHz PLL
 458:	86 e0       	ldi	r24, 0x06	; 6
 45a:	89 bd       	out	0x29, r24	; 41
  Wait_pll_ready();
 45c:	09 b4       	in	r0, 0x29	; 41
 45e:	00 fe       	sbrs	r0, 0
 460:	fd cf       	rjmp	.-6      	; 0x45c <main+0x24>
  
  a4910_enable(); //enable MOSFET driver
 462:	0e 94 61 00 	call	0xc2	; 0xc2 <a4910_enable>
  motor_run();
 466:	0e 94 59 02 	call	0x4b2	; 0x4b2 <motor_run>

  sei(); //enable interrupts
 46a:	78 94       	sei

	unoPinA2_high(); //debug
 46c:	0e 94 22 01 	call	0x244	; 0x244 <unoPinA2_high>
	unoPinA2_low();
 470:	0e 94 27 01 	call	0x24e	; 0x24e <unoPinA2_low>
	
	unoPinA4_high(); //debug
 474:	0e 94 1f 01 	call	0x23e	; 0x23e <unoPinA4_high>
	unoPinA4_low();
 478:	0e 94 25 01 	call	0x24a	; 0x24a <unoPinA4_low>

  while(1)
  {	  	  
    if (timing_runControlLoop_get() == TRUE) //controlled by Timer0 interrupt
 47c:	0e 94 0d 04 	call	0x81a	; 0x81a <timing_runControlLoop_get>
 480:	81 30       	cpi	r24, 0x01	; 1
 482:	e1 f7       	brne	.-8      	; 0x47c <main+0x44>
    {	
      timing_runControlLoop_set(FALSE); //prevent control loop from running again until next Timer0 interrupt occurs
 484:	80 e0       	ldi	r24, 0x00	; 0
 486:	0e 94 10 04 	call	0x820	; 0x820 <timing_runControlLoop_set>

      interface_handler();
 48a:	0e 94 f4 01 	call	0x3e8	; 0x3e8 <interface_handler>
 48e:	f6 cf       	rjmp	.-20     	; 0x47c <main+0x44>

00000490 <motor_state_get>:
uint8_t motorStatus = STOPPED;
uint8_t motorDirection = MOTOR_CW;

////////////////////////////////////////////////////////////////////////////////////////

uint8_t motor_state_get(void) { return motorStatus; }
 490:	80 91 2d 01 	lds	r24, 0x012D	; 0x80012d <motorStatus>
 494:	08 95       	ret

00000496 <motor_stop>:

////////////////////////////////////////////////////////////////////////////////////////

void motor_stop(void)
{
  motorStatus = STOPPED;
 496:	10 92 2d 01 	sts	0x012D, r1	; 0x80012d <motorStatus>
  a4910_disable();
 49a:	0c 94 5f 00 	jmp	0xbe	; 0xbe <a4910_disable>

0000049e <motor_init>:

////////////////////////////////////////////////////////////////////////////////////////

void motor_init()
{
  motor_stop();
 49e:	0e 94 4b 02 	call	0x496	; 0x496 <motor_stop>
  adc_goalRPM_set(0);
 4a2:	80 e0       	ldi	r24, 0x00	; 0
 4a4:	90 e0       	ldi	r25, 0x00	; 0
 4a6:	0e 94 1a 01 	call	0x234	; 0x234 <adc_goalRPM_set>
  timing_measuredRPM_set(0);
 4aa:	80 e0       	ldi	r24, 0x00	; 0
 4ac:	90 e0       	ldi	r25, 0x00	; 0
 4ae:	0c 94 5a 04 	jmp	0x8b4	; 0x8b4 <timing_measuredRPM_set>

000004b2 <motor_run>:

////////////////////////////////////////////////////////////////////////////////////////

void motor_run(void)
{
  motorStatus = RUNNING;
 4b2:	81 e0       	ldi	r24, 0x01	; 1
 4b4:	80 93 2d 01 	sts	0x012D, r24	; 0x80012d <motorStatus>

  a4910_enable();
 4b8:	0e 94 61 00 	call	0xc2	; 0xc2 <a4910_enable>
  
  pid_dutyCycle_set(175); //kickstart motor
 4bc:	8f ea       	ldi	r24, 0xAF	; 175
 4be:	0e 94 70 02 	call	0x4e0	; 0x4e0 <pid_dutyCycle_set>
  psc_commutateOutputWaveforms( 175 );
 4c2:	8f ea       	ldi	r24, 0xAF	; 175
 4c4:	0c 94 f8 02 	jmp	0x5f0	; 0x5f0 <psc_commutateOutputWaveforms>

000004c8 <motor_direction_set>:

////////////////////////////////////////////////////////////////////////////////////////

//JTS2doNow: Direction never set in code.  Fine for now.
//JTS2doNow: If direction_now != direction_previous, need to stop motor first, then spin other way. //PID loop might take care of this automatically
void    motor_direction_set(uint8_t direction) { (direction == MOTOR_CCW) ? (motorDirection = MOTOR_CCW) : (motorDirection = MOTOR_CW); }
 4c8:	81 30       	cpi	r24, 0x01	; 1
 4ca:	09 f0       	breq	.+2      	; 0x4ce <motor_direction_set+0x6>
 4cc:	82 e0       	ldi	r24, 0x02	; 2
 4ce:	80 93 03 01 	sts	0x0103, r24	; 0x800103 <motorDirection>
 4d2:	08 95       	ret

000004d4 <motor_direction_get>:
 4d4:	80 91 03 01 	lds	r24, 0x0103	; 0x800103 <motorDirection>
 4d8:	08 95       	ret

000004da <pid_dutyCycle_get>:

  if(speed_derivative >  255) speed_derivative =  255;
  if(speed_derivative < -255) speed_derivative = -255;

  return (SPEED_PID_DIFFERENTIAL_COEF * speed_derivative);
}
 4da:	80 91 30 01 	lds	r24, 0x0130	; 0x800130 <dutyPID>
 4de:	08 95       	ret

000004e0 <pid_dutyCycle_set>:
 4e0:	80 93 30 01 	sts	0x0130, r24	; 0x800130 <dutyPID>
 4e4:	08 95       	ret

000004e6 <pid_dutyCycle_calculate>:

////////////////////////////////////////////////////////////////////////////////////////

uint8_t pid_dutyCycle_calculate(void)
{
 4e6:	cf 93       	push	r28
 4e8:	df 93       	push	r29
  #ifdef SPINDLE_MODE_CLOSED_LOOP 
    static int16_t summedPID = 0;
    int16_t error_actualMinusGoal_RPM = (int16_t)timing_measuredRPM_get() - (int16_t)adc_goalRPM_get();
 4ea:	0e 94 55 04 	call	0x8aa	; 0x8aa <timing_measuredRPM_get>
 4ee:	ec 01       	movw	r28, r24
 4f0:	0e 94 15 01 	call	0x22a	; 0x22a <adc_goalRPM_get>

	if(error_actualMinusGoal_RPM > 0) { summedPID--; }
 4f4:	c8 1b       	sub	r28, r24
 4f6:	d9 0b       	sbc	r29, r25
 4f8:	20 91 2e 01 	lds	r18, 0x012E	; 0x80012e <summedPID.2082>
 4fc:	30 91 2f 01 	lds	r19, 0x012F	; 0x80012f <summedPID.2082+0x1>
 500:	1c 16       	cp	r1, r28
 502:	1d 06       	cpc	r1, r29
 504:	1c f4       	brge	.+6      	; 0x50c <pid_dutyCycle_calculate+0x26>
 506:	21 50       	subi	r18, 0x01	; 1
 508:	31 09       	sbc	r19, r1
 50a:	02 c0       	rjmp	.+4      	; 0x510 <pid_dutyCycle_calculate+0x2a>
	else                              { summedPID++; }
 50c:	2f 5f       	subi	r18, 0xFF	; 255
 50e:	3f 4f       	sbci	r19, 0xFF	; 255
 510:	30 93 2f 01 	sts	0x012F, r19	; 0x80012f <summedPID.2082+0x1>
 514:	20 93 2e 01 	sts	0x012E, r18	; 0x80012e <summedPID.2082>
    // Duty Cycle calculation
    //summedPID = TermPID_proportional + TermPID_integral + TermPID_derivative;
    //summedPID = error_actualRPM_minus_goalRPM;

    // Bound max/min PWM value
    if     ( summedPID > (int16_t)(255) ) { summedPID = 255; }
 518:	80 91 2e 01 	lds	r24, 0x012E	; 0x80012e <summedPID.2082>
 51c:	90 91 2f 01 	lds	r25, 0x012F	; 0x80012f <summedPID.2082+0x1>
 520:	8f 3f       	cpi	r24, 0xFF	; 255
 522:	91 05       	cpc	r25, r1
 524:	21 f0       	breq	.+8      	; 0x52e <pid_dutyCycle_calculate+0x48>
 526:	1c f0       	brlt	.+6      	; 0x52e <pid_dutyCycle_calculate+0x48>
 528:	8f ef       	ldi	r24, 0xFF	; 255
 52a:	90 e0       	ldi	r25, 0x00	; 0
 52c:	05 c0       	rjmp	.+10     	; 0x538 <pid_dutyCycle_calculate+0x52>
    else if( summedPID < (int16_t)(125) ) { summedPID = 125; }
 52e:	8d 37       	cpi	r24, 0x7D	; 125
 530:	91 05       	cpc	r25, r1
 532:	34 f4       	brge	.+12     	; 0x540 <pid_dutyCycle_calculate+0x5a>
 534:	8d e7       	ldi	r24, 0x7D	; 125
 536:	90 e0       	ldi	r25, 0x00	; 0
 538:	90 93 2f 01 	sts	0x012F, r25	; 0x80012f <summedPID.2082+0x1>
 53c:	80 93 2e 01 	sts	0x012E, r24	; 0x80012e <summedPID.2082>
    
    dutyPID = summedPID;
 540:	80 91 2e 01 	lds	r24, 0x012E	; 0x80012e <summedPID.2082>
 544:	80 93 30 01 	sts	0x0130, r24	; 0x800130 <dutyPID>
  #elif defined SPINDLE_MODE_OPEN_LOOP
    dutyPID = OPEN_LOOP_STATIC_PSC_DUTY_CYCLE;
  #endif
	
  return dutyPID;
}
 548:	df 91       	pop	r29
 54a:	cf 91       	pop	r28
 54c:	08 95       	ret

0000054e <psc_init>:
  // PD0 => UH     PB7 => UL
  // PC0 => VH     PB6 => VL
  // PB0 => WH     PB1 => WL

  // Set MOSFET Drive pins low (soo all FETs are off when set to output in next step)
  PORTB &= ~(1<<PORTB7 | 1<<PORTB6 | 1<<PORTB1 | 1<<PORTB0);
 54e:	85 b1       	in	r24, 0x05	; 5
 550:	8c 73       	andi	r24, 0x3C	; 60
 552:	85 b9       	out	0x05, r24	; 5
  PORTC &= ~(1<<PORTC0);
 554:	40 98       	cbi	0x08, 0	; 8
  PORTD &= ~(1<<PORTD0);
 556:	58 98       	cbi	0x0b, 0	; 11

  // Configure MOSFET pins to output
  DDRB = (1<<DDB7)|(1<<DDB6)|(1<<DDB1)|(1<<DDB0);
 558:	83 ec       	ldi	r24, 0xC3	; 195
 55a:	84 b9       	out	0x04, r24	; 4
  DDRC = (1<<DDC0);
 55c:	81 e0       	ldi	r24, 0x01	; 1
 55e:	87 b9       	out	0x07, r24	; 7
  DDRD = (1<<DDD0);
 560:	8a b9       	out	0x0a, r24	; 10

//used if PSCs are controlling commutation
void psc_connectAllMOSFETs(void)
{
  //POC: PSC output configuration
  POC = ( (1<<POEN0A)|(1<<POEN0B) |  //0:disconnect PSC outputs 0A & 0B from I/O pins //1:connect PSC output
 562:	9f e3       	ldi	r25, 0x3F	; 63
 564:	90 93 b6 00 	sts	0x00B6, r25	; 0x8000b6 <__TEXT_REGION_LENGTH__+0x7f80b6>
   //SA_VAL: When PSC counter is less    than this value, high FET is enabled
   //SB_VAL: When PSC counter is greater than this value, low  FET is enabled
   //The difference between SA and SB sets the dead time between phases 
   //RA_VAL: Not used in centered mode //can be used to synchronize ADC
   //RB_VAL: Not used in centered mode 
   Psc_set_module_A(A_SA_VAL,A_RA_VAL,A_SB_VAL);
 568:	10 92 a1 00 	sts	0x00A1, r1	; 0x8000a1 <__TEXT_REGION_LENGTH__+0x7f80a1>
 56c:	10 92 a0 00 	sts	0x00A0, r1	; 0x8000a0 <__TEXT_REGION_LENGTH__+0x7f80a0>
 570:	10 92 a3 00 	sts	0x00A3, r1	; 0x8000a3 <__TEXT_REGION_LENGTH__+0x7f80a3>
 574:	80 93 a2 00 	sts	0x00A2, r24	; 0x8000a2 <__TEXT_REGION_LENGTH__+0x7f80a2>
 578:	10 92 a5 00 	sts	0x00A5, r1	; 0x8000a5 <__TEXT_REGION_LENGTH__+0x7f80a5>
 57c:	10 92 a4 00 	sts	0x00A4, r1	; 0x8000a4 <__TEXT_REGION_LENGTH__+0x7f80a4>
   Psc_set_module_B(B_SA_VAL,B_RA_VAL,B_SB_VAL);
 580:	10 92 a7 00 	sts	0x00A7, r1	; 0x8000a7 <__TEXT_REGION_LENGTH__+0x7f80a7>
 584:	10 92 a6 00 	sts	0x00A6, r1	; 0x8000a6 <__TEXT_REGION_LENGTH__+0x7f80a6>
 588:	10 92 a9 00 	sts	0x00A9, r1	; 0x8000a9 <__TEXT_REGION_LENGTH__+0x7f80a9>
 58c:	80 93 a8 00 	sts	0x00A8, r24	; 0x8000a8 <__TEXT_REGION_LENGTH__+0x7f80a8>
 590:	10 92 ab 00 	sts	0x00AB, r1	; 0x8000ab <__TEXT_REGION_LENGTH__+0x7f80ab>
 594:	10 92 aa 00 	sts	0x00AA, r1	; 0x8000aa <__TEXT_REGION_LENGTH__+0x7f80aa>
   Psc_set_module_C(C_SA_VAL,C_RA_VAL,C_SB_VAL);
 598:	10 92 ad 00 	sts	0x00AD, r1	; 0x8000ad <__TEXT_REGION_LENGTH__+0x7f80ad>
 59c:	10 92 ac 00 	sts	0x00AC, r1	; 0x8000ac <__TEXT_REGION_LENGTH__+0x7f80ac>
 5a0:	10 92 af 00 	sts	0x00AF, r1	; 0x8000af <__TEXT_REGION_LENGTH__+0x7f80af>
 5a4:	80 93 ae 00 	sts	0x00AE, r24	; 0x8000ae <__TEXT_REGION_LENGTH__+0x7f80ae>
 5a8:	10 92 b1 00 	sts	0x00B1, r1	; 0x8000b1 <__TEXT_REGION_LENGTH__+0x7f80b1>
 5ac:	10 92 b0 00 	sts	0x00B0, r1	; 0x8000b0 <__TEXT_REGION_LENGTH__+0x7f80b0>
   Psc_set_register_RB(RB_VAL); //max value 12b free-running PSC counter counts up to
 5b0:	10 92 b3 00 	sts	0x00B3, r1	; 0x8000b3 <__TEXT_REGION_LENGTH__+0x7f80b3>
 5b4:	9e ef       	ldi	r25, 0xFE	; 254
 5b6:	90 93 b2 00 	sts	0x00B2, r25	; 0x8000b2 <__TEXT_REGION_LENGTH__+0x7f80b2>

   Psc_config();
 5ba:	94 e1       	ldi	r25, 0x14	; 20
 5bc:	90 93 b5 00 	sts	0x00B5, r25	; 0x8000b5 <__TEXT_REGION_LENGTH__+0x7f80b5>

   Psc_config_input_0(PSC_OVERLAP_ENABLE,\
 5c0:	98 ed       	ldi	r25, 0xD8	; 216
 5c2:	90 93 b8 00 	sts	0x00B8, r25	; 0x8000b8 <__TEXT_REGION_LENGTH__+0x7f80b8>
                      PSC_USE_LOW_LEVEL,\
                      PSC_INPUT_FILTER_ENABLE,\
                      PSC_SYNCHRONOUS_OUTPUT_CONTROL,\
                      PSC_INPUT_NO_ACTION); //PSC input is ignored

   Psc_config_input_1(PSC_OVERLAP_ENABLE,\
 5c6:	28 ef       	ldi	r18, 0xF8	; 248
 5c8:	20 93 b9 00 	sts	0x00B9, r18	; 0x8000b9 <__TEXT_REGION_LENGTH__+0x7f80b9>
                      PSC_USE_HIGH_LEVEL,\
                      PSC_INPUT_FILTER_ENABLE,\
                      PSC_SYNCHRONOUS_OUTPUT_CONTROL,\
                      PSC_INPUT_NO_ACTION);

   Psc_config_input_2(PSC_OVERLAP_ENABLE,\
 5cc:	90 93 ba 00 	sts	0x00BA, r25	; 0x8000ba <__TEXT_REGION_LENGTH__+0x7f80ba>
                      PSC_USE_LOW_LEVEL,\
                      PSC_INPUT_FILTER_ENABLE,\
                      PSC_SYNCHRONOUS_OUTPUT_CONTROL,\
                      PSC_INPUT_NO_ACTION);

   PIFR = (1<<PEV2)|(1<<PEV1)|(1<<PEV0)|(1<<PEOP); //PSC interrupt flag register
 5d0:	9f e0       	ldi	r25, 0x0F	; 15
 5d2:	90 93 bc 00 	sts	0x00BC, r25	; 0x8000bc <__TEXT_REGION_LENGTH__+0x7f80bc>

   PIM = (0<<PEVE1)|(0<<PEVE1)|(0<<PEVE2)|(0<<PEOPE); //PSC interrupt mask register
 5d6:	10 92 bb 00 	sts	0x00BB, r1	; 0x8000bb <__TEXT_REGION_LENGTH__+0x7f80bb>
                         //PEVE0 high: when fault occurs on PSC1, generate interrupt //low: no interrupt
                         //PEVE1 high: when fault occurs on PSC1, generate interrupt //low: no interrupt
                         //PEVE2 high: when fault occurs on PSC1, generate interrupt //low: no interrupt
                         //PEOPE high: PSC generates interrupt when end of cycle reached //low: no interrupt

   Psc_run();
 5da:	80 93 b7 00 	sts	0x00B7, r24	; 0x8000b7 <__TEXT_REGION_LENGTH__+0x7f80b7>
 5de:	08 95       	ret

000005e0 <psc_disconnectAllMOSFETs>:
//////////////////////////////////////////////////////////////////////////////////////////////////

void psc_disconnectAllMOSFETs(void)
{
  //set standard pin outputs low
  PORTB &= ( ~((1<<PORTB7)|(1<<PORTB6)|(1<<PORTB0)|(1<<PORTB1)) ); //Turn off Q2/Q4/Q5/Q6, respectively
 5e0:	85 b1       	in	r24, 0x05	; 5
 5e2:	8c 73       	andi	r24, 0x3C	; 60
 5e4:	85 b9       	out	0x05, r24	; 5
  PORTC &= ( ~(1<<PORTC0) ); //turn off Q3
 5e6:	40 98       	cbi	0x08, 0	; 8
  PORTD &= ( ~(1<<PORTD0) ); //turn off Q1
 5e8:	58 98       	cbi	0x0b, 0	; 11

  //POC: PSC output configuration
  POC = ( (0<<POEN0A)|(0<<POEN0B) |  //0:disconnect PSC outputs 0A & 0B from I/O pins //1:connect PSC output
 5ea:	10 92 b6 00 	sts	0x00B6, r1	; 0x8000b6 <__TEXT_REGION_LENGTH__+0x7f80b6>
 5ee:	08 95       	ret

000005f0 <psc_commutateOutputWaveforms>:

//Set the duty cycle values in the PSC according to the value calculate by the regulation loop
  // duty =   0: Duty Cycle   0%
  // duty = 255: Duty Cycle 100%
void psc_commutateOutputWaveforms(uint8_t duty)
{ 
 5f0:	cf 93       	push	r28
 5f2:	df 93       	push	r29
 5f4:	d8 2f       	mov	r29, r24
  if ( motor_state_get() == STOPPED )
 5f6:	0e 94 48 02 	call	0x490	; 0x490 <motor_state_get>
 5fa:	81 11       	cpse	r24, r1
 5fc:	28 c0       	rjmp	.+80     	; 0x64e <psc_commutateOutputWaveforms+0x5e>
  {
    psc_disconnectAllMOSFETs();
 5fe:	0e 94 f0 02 	call	0x5e0	; 0x5e0 <psc_disconnectAllMOSFETs>

    //disable PWM on all FETs
    Psc_set_module_A(0,A_RA_VAL,0);
 602:	10 92 a1 00 	sts	0x00A1, r1	; 0x8000a1 <__TEXT_REGION_LENGTH__+0x7f80a1>
 606:	10 92 a0 00 	sts	0x00A0, r1	; 0x8000a0 <__TEXT_REGION_LENGTH__+0x7f80a0>
 60a:	10 92 a3 00 	sts	0x00A3, r1	; 0x8000a3 <__TEXT_REGION_LENGTH__+0x7f80a3>
 60e:	81 e0       	ldi	r24, 0x01	; 1
 610:	80 93 a2 00 	sts	0x00A2, r24	; 0x8000a2 <__TEXT_REGION_LENGTH__+0x7f80a2>
 614:	10 92 a5 00 	sts	0x00A5, r1	; 0x8000a5 <__TEXT_REGION_LENGTH__+0x7f80a5>
 618:	10 92 a4 00 	sts	0x00A4, r1	; 0x8000a4 <__TEXT_REGION_LENGTH__+0x7f80a4>
    Psc_set_module_B(0,B_RA_VAL,0);
 61c:	10 92 a7 00 	sts	0x00A7, r1	; 0x8000a7 <__TEXT_REGION_LENGTH__+0x7f80a7>
 620:	10 92 a6 00 	sts	0x00A6, r1	; 0x8000a6 <__TEXT_REGION_LENGTH__+0x7f80a6>
 624:	10 92 a9 00 	sts	0x00A9, r1	; 0x8000a9 <__TEXT_REGION_LENGTH__+0x7f80a9>
 628:	80 93 a8 00 	sts	0x00A8, r24	; 0x8000a8 <__TEXT_REGION_LENGTH__+0x7f80a8>
 62c:	10 92 ab 00 	sts	0x00AB, r1	; 0x8000ab <__TEXT_REGION_LENGTH__+0x7f80ab>
 630:	10 92 aa 00 	sts	0x00AA, r1	; 0x8000aa <__TEXT_REGION_LENGTH__+0x7f80aa>
    Psc_set_module_C(0,C_RA_VAL,0);
 634:	10 92 ad 00 	sts	0x00AD, r1	; 0x8000ad <__TEXT_REGION_LENGTH__+0x7f80ad>
 638:	10 92 ac 00 	sts	0x00AC, r1	; 0x8000ac <__TEXT_REGION_LENGTH__+0x7f80ac>
 63c:	10 92 af 00 	sts	0x00AF, r1	; 0x8000af <__TEXT_REGION_LENGTH__+0x7f80af>
 640:	80 93 ae 00 	sts	0x00AE, r24	; 0x8000ae <__TEXT_REGION_LENGTH__+0x7f80ae>
 644:	10 92 b1 00 	sts	0x00B1, r1	; 0x8000b1 <__TEXT_REGION_LENGTH__+0x7f80b1>
 648:	10 92 b0 00 	sts	0x00B0, r1	; 0x8000b0 <__TEXT_REGION_LENGTH__+0x7f80b0>
 64c:	e3 c0       	rjmp	.+454    	; 0x814 <__DATA_REGION_LENGTH__+0x14>

//used if PSCs are controlling commutation
void psc_connectAllMOSFETs(void)
{
  //POC: PSC output configuration
  POC = ( (1<<POEN0A)|(1<<POEN0B) |  //0:disconnect PSC outputs 0A & 0B from I/O pins //1:connect PSC output
 64e:	8f e3       	ldi	r24, 0x3F	; 63
 650:	80 93 b6 00 	sts	0x00B6, r24	; 0x8000b6 <__TEXT_REGION_LENGTH__+0x7f80b6>
  }
  else //(motor_state_get() == RUNNING)
  {
    psc_connectAllMOSFETs();
    
    uint8_t hallState = hall_getPosition();
 654:	0e 94 35 01 	call	0x26a	; 0x26a <hall_getPosition>
 658:	c8 2f       	mov	r28, r24

	//flip hall bits (6->1, 5->2. 4->3, 3->4, 2->5, 1->6)
    if(motor_direction_get() == MOTOR_CCW) { hallState = ((~hallState) & 0b00000111); }
 65a:	0e 94 6a 02 	call	0x4d4	; 0x4d4 <motor_direction_get>
 65e:	81 30       	cpi	r24, 0x01	; 1
 660:	11 f4       	brne	.+4      	; 0x666 <psc_commutateOutputWaveforms+0x76>
 662:	c0 95       	com	r28
 664:	c7 70       	andi	r28, 0x07	; 7

    Psc_lock();
 666:	84 e3       	ldi	r24, 0x34	; 52
 668:	80 93 b5 00 	sts	0x00B5, r24	; 0x8000b5 <__TEXT_REGION_LENGTH__+0x7f80b5>

    //Determine which two PSC outputs will generate PWM waveforms 
    switch(hallState)
 66c:	c3 30       	cpi	r28, 0x03	; 3
 66e:	09 f4       	brne	.+2      	; 0x672 <psc_commutateOutputWaveforms+0x82>
 670:	64 c0       	rjmp	.+200    	; 0x73a <psc_commutateOutputWaveforms+0x14a>
 672:	00 f5       	brcc	.+64     	; 0x6b4 <psc_commutateOutputWaveforms+0xc4>
 674:	c1 30       	cpi	r28, 0x01	; 1
 676:	09 f4       	brne	.+2      	; 0x67a <psc_commutateOutputWaveforms+0x8a>
 678:	3f c0       	rjmp	.+126    	; 0x6f8 <psc_commutateOutputWaveforms+0x108>
 67a:	c2 30       	cpi	r28, 0x02	; 2
 67c:	09 f0       	breq	.+2      	; 0x680 <psc_commutateOutputWaveforms+0x90>
 67e:	c7 c0       	rjmp	.+398    	; 0x80e <__DATA_REGION_LENGTH__+0xe>
        Psc_set_module_B(0,B_RA_VAL,0);
        Psc_set_module_C(0,C_RA_VAL,duty); //PWM_Q6 (PSC2B)(PB1)
      break;

      case 2: //Set_Q3Q2(); 1A 0B
        Psc_set_module_A(0,A_RA_VAL,duty); //PWM_Q2 (PSC0B)(PB7)
 680:	10 92 a1 00 	sts	0x00A1, r1	; 0x8000a1 <__TEXT_REGION_LENGTH__+0x7f80a1>
 684:	10 92 a0 00 	sts	0x00A0, r1	; 0x8000a0 <__TEXT_REGION_LENGTH__+0x7f80a0>
 688:	10 92 a3 00 	sts	0x00A3, r1	; 0x8000a3 <__TEXT_REGION_LENGTH__+0x7f80a3>
 68c:	81 e0       	ldi	r24, 0x01	; 1
 68e:	80 93 a2 00 	sts	0x00A2, r24	; 0x8000a2 <__TEXT_REGION_LENGTH__+0x7f80a2>
 692:	10 92 a5 00 	sts	0x00A5, r1	; 0x8000a5 <__TEXT_REGION_LENGTH__+0x7f80a5>
 696:	d0 93 a4 00 	sts	0x00A4, r29	; 0x8000a4 <__TEXT_REGION_LENGTH__+0x7f80a4>
        Psc_set_module_B(duty,B_RA_VAL,0); //PWM_Q3 (PSC1A)(PC0)
 69a:	10 92 a7 00 	sts	0x00A7, r1	; 0x8000a7 <__TEXT_REGION_LENGTH__+0x7f80a7>
 69e:	d0 93 a6 00 	sts	0x00A6, r29	; 0x8000a6 <__TEXT_REGION_LENGTH__+0x7f80a6>
 6a2:	10 92 a9 00 	sts	0x00A9, r1	; 0x8000a9 <__TEXT_REGION_LENGTH__+0x7f80a9>
 6a6:	80 93 a8 00 	sts	0x00A8, r24	; 0x8000a8 <__TEXT_REGION_LENGTH__+0x7f80a8>
 6aa:	10 92 ab 00 	sts	0x00AB, r1	; 0x8000ab <__TEXT_REGION_LENGTH__+0x7f80ab>
 6ae:	10 92 aa 00 	sts	0x00AA, r1	; 0x8000aa <__TEXT_REGION_LENGTH__+0x7f80aa>
 6b2:	9c c0       	rjmp	.+312    	; 0x7ec <psc_commutateOutputWaveforms+0x1fc>
    if(motor_direction_get() == MOTOR_CCW) { hallState = ((~hallState) & 0b00000111); }

    Psc_lock();

    //Determine which two PSC outputs will generate PWM waveforms 
    switch(hallState)
 6b4:	c5 30       	cpi	r28, 0x05	; 5
 6b6:	09 f4       	brne	.+2      	; 0x6ba <psc_commutateOutputWaveforms+0xca>
 6b8:	80 c0       	rjmp	.+256    	; 0x7ba <psc_commutateOutputWaveforms+0x1ca>
 6ba:	08 f4       	brcc	.+2      	; 0x6be <psc_commutateOutputWaveforms+0xce>
 6bc:	64 c0       	rjmp	.+200    	; 0x786 <psc_commutateOutputWaveforms+0x196>
 6be:	c6 30       	cpi	r28, 0x06	; 6
 6c0:	09 f0       	breq	.+2      	; 0x6c4 <psc_commutateOutputWaveforms+0xd4>
 6c2:	a5 c0       	rjmp	.+330    	; 0x80e <__DATA_REGION_LENGTH__+0xe>
        Psc_set_module_B(0,B_RA_VAL,duty); //PWM_Q4 (PSC1B)(PB6)
        Psc_set_module_C(0,C_RA_VAL,0);
      break;

      case 6: //Set_Q5Q2(); 2A 0B
        Psc_set_module_A(0,A_RA_VAL,duty); //PWM_Q2 (PSC0B)(PB7)
 6c4:	10 92 a1 00 	sts	0x00A1, r1	; 0x8000a1 <__TEXT_REGION_LENGTH__+0x7f80a1>
 6c8:	10 92 a0 00 	sts	0x00A0, r1	; 0x8000a0 <__TEXT_REGION_LENGTH__+0x7f80a0>
 6cc:	10 92 a3 00 	sts	0x00A3, r1	; 0x8000a3 <__TEXT_REGION_LENGTH__+0x7f80a3>
 6d0:	81 e0       	ldi	r24, 0x01	; 1
 6d2:	80 93 a2 00 	sts	0x00A2, r24	; 0x8000a2 <__TEXT_REGION_LENGTH__+0x7f80a2>
 6d6:	10 92 a5 00 	sts	0x00A5, r1	; 0x8000a5 <__TEXT_REGION_LENGTH__+0x7f80a5>
 6da:	d0 93 a4 00 	sts	0x00A4, r29	; 0x8000a4 <__TEXT_REGION_LENGTH__+0x7f80a4>
        Psc_set_module_B(0,B_RA_VAL,0);
 6de:	10 92 a7 00 	sts	0x00A7, r1	; 0x8000a7 <__TEXT_REGION_LENGTH__+0x7f80a7>
 6e2:	10 92 a6 00 	sts	0x00A6, r1	; 0x8000a6 <__TEXT_REGION_LENGTH__+0x7f80a6>
 6e6:	10 92 a9 00 	sts	0x00A9, r1	; 0x8000a9 <__TEXT_REGION_LENGTH__+0x7f80a9>
 6ea:	80 93 a8 00 	sts	0x00A8, r24	; 0x8000a8 <__TEXT_REGION_LENGTH__+0x7f80a8>
 6ee:	10 92 ab 00 	sts	0x00AB, r1	; 0x8000ab <__TEXT_REGION_LENGTH__+0x7f80ab>
 6f2:	10 92 aa 00 	sts	0x00AA, r1	; 0x8000aa <__TEXT_REGION_LENGTH__+0x7f80aa>
 6f6:	7f c0       	rjmp	.+254    	; 0x7f6 <psc_commutateOutputWaveforms+0x206>

    //Determine which two PSC outputs will generate PWM waveforms 
    switch(hallState)
    {
      case 1:  
        Psc_set_module_A(duty,A_RA_VAL,0); //PWM_Q1 (PSC0A)(PD0)
 6f8:	10 92 a1 00 	sts	0x00A1, r1	; 0x8000a1 <__TEXT_REGION_LENGTH__+0x7f80a1>
 6fc:	d0 93 a0 00 	sts	0x00A0, r29	; 0x8000a0 <__TEXT_REGION_LENGTH__+0x7f80a0>
 700:	10 92 a3 00 	sts	0x00A3, r1	; 0x8000a3 <__TEXT_REGION_LENGTH__+0x7f80a3>
 704:	c0 93 a2 00 	sts	0x00A2, r28	; 0x8000a2 <__TEXT_REGION_LENGTH__+0x7f80a2>
 708:	10 92 a5 00 	sts	0x00A5, r1	; 0x8000a5 <__TEXT_REGION_LENGTH__+0x7f80a5>
 70c:	10 92 a4 00 	sts	0x00A4, r1	; 0x8000a4 <__TEXT_REGION_LENGTH__+0x7f80a4>
        Psc_set_module_B(0,B_RA_VAL,0);
 710:	10 92 a7 00 	sts	0x00A7, r1	; 0x8000a7 <__TEXT_REGION_LENGTH__+0x7f80a7>
 714:	10 92 a6 00 	sts	0x00A6, r1	; 0x8000a6 <__TEXT_REGION_LENGTH__+0x7f80a6>
 718:	10 92 a9 00 	sts	0x00A9, r1	; 0x8000a9 <__TEXT_REGION_LENGTH__+0x7f80a9>
 71c:	c0 93 a8 00 	sts	0x00A8, r28	; 0x8000a8 <__TEXT_REGION_LENGTH__+0x7f80a8>
 720:	10 92 ab 00 	sts	0x00AB, r1	; 0x8000ab <__TEXT_REGION_LENGTH__+0x7f80ab>
 724:	10 92 aa 00 	sts	0x00AA, r1	; 0x8000aa <__TEXT_REGION_LENGTH__+0x7f80aa>
        Psc_set_module_C(0,C_RA_VAL,duty); //PWM_Q6 (PSC2B)(PB1)
 728:	10 92 ad 00 	sts	0x00AD, r1	; 0x8000ad <__TEXT_REGION_LENGTH__+0x7f80ad>
 72c:	10 92 ac 00 	sts	0x00AC, r1	; 0x8000ac <__TEXT_REGION_LENGTH__+0x7f80ac>
 730:	10 92 af 00 	sts	0x00AF, r1	; 0x8000af <__TEXT_REGION_LENGTH__+0x7f80af>
 734:	c0 93 ae 00 	sts	0x00AE, r28	; 0x8000ae <__TEXT_REGION_LENGTH__+0x7f80ae>
 738:	21 c0       	rjmp	.+66     	; 0x77c <psc_commutateOutputWaveforms+0x18c>
        Psc_set_module_B(duty,B_RA_VAL,0); //PWM_Q3 (PSC1A)(PC0)
        Psc_set_module_C(0,C_RA_VAL,0);
      break;

      case 3: //Set_Q3Q6(); 1A 2B
        Psc_set_module_A(0,A_RA_VAL,0);
 73a:	10 92 a1 00 	sts	0x00A1, r1	; 0x8000a1 <__TEXT_REGION_LENGTH__+0x7f80a1>
 73e:	10 92 a0 00 	sts	0x00A0, r1	; 0x8000a0 <__TEXT_REGION_LENGTH__+0x7f80a0>
 742:	10 92 a3 00 	sts	0x00A3, r1	; 0x8000a3 <__TEXT_REGION_LENGTH__+0x7f80a3>
 746:	81 e0       	ldi	r24, 0x01	; 1
 748:	80 93 a2 00 	sts	0x00A2, r24	; 0x8000a2 <__TEXT_REGION_LENGTH__+0x7f80a2>
 74c:	10 92 a5 00 	sts	0x00A5, r1	; 0x8000a5 <__TEXT_REGION_LENGTH__+0x7f80a5>
 750:	10 92 a4 00 	sts	0x00A4, r1	; 0x8000a4 <__TEXT_REGION_LENGTH__+0x7f80a4>
        Psc_set_module_B(duty,B_RA_VAL,0); //PWM_Q3 (PSC1A)(PC0)
 754:	10 92 a7 00 	sts	0x00A7, r1	; 0x8000a7 <__TEXT_REGION_LENGTH__+0x7f80a7>
 758:	d0 93 a6 00 	sts	0x00A6, r29	; 0x8000a6 <__TEXT_REGION_LENGTH__+0x7f80a6>
 75c:	10 92 a9 00 	sts	0x00A9, r1	; 0x8000a9 <__TEXT_REGION_LENGTH__+0x7f80a9>
 760:	80 93 a8 00 	sts	0x00A8, r24	; 0x8000a8 <__TEXT_REGION_LENGTH__+0x7f80a8>
 764:	10 92 ab 00 	sts	0x00AB, r1	; 0x8000ab <__TEXT_REGION_LENGTH__+0x7f80ab>
 768:	10 92 aa 00 	sts	0x00AA, r1	; 0x8000aa <__TEXT_REGION_LENGTH__+0x7f80aa>
        Psc_set_module_C(0,C_RA_VAL,duty); //PWM_Q6 (PSC2B)(PB1)
 76c:	10 92 ad 00 	sts	0x00AD, r1	; 0x8000ad <__TEXT_REGION_LENGTH__+0x7f80ad>
 770:	10 92 ac 00 	sts	0x00AC, r1	; 0x8000ac <__TEXT_REGION_LENGTH__+0x7f80ac>
 774:	10 92 af 00 	sts	0x00AF, r1	; 0x8000af <__TEXT_REGION_LENGTH__+0x7f80af>
 778:	80 93 ae 00 	sts	0x00AE, r24	; 0x8000ae <__TEXT_REGION_LENGTH__+0x7f80ae>
 77c:	10 92 b1 00 	sts	0x00B1, r1	; 0x8000b1 <__TEXT_REGION_LENGTH__+0x7f80b1>
 780:	d0 93 b0 00 	sts	0x00B0, r29	; 0x8000b0 <__TEXT_REGION_LENGTH__+0x7f80b0>
      break;
 784:	44 c0       	rjmp	.+136    	; 0x80e <__DATA_REGION_LENGTH__+0xe>

      case 4: //Set_Q5Q4(); 2A 1B
        Psc_set_module_A(0,A_RA_VAL,0);
 786:	10 92 a1 00 	sts	0x00A1, r1	; 0x8000a1 <__TEXT_REGION_LENGTH__+0x7f80a1>
 78a:	10 92 a0 00 	sts	0x00A0, r1	; 0x8000a0 <__TEXT_REGION_LENGTH__+0x7f80a0>
 78e:	10 92 a3 00 	sts	0x00A3, r1	; 0x8000a3 <__TEXT_REGION_LENGTH__+0x7f80a3>
 792:	81 e0       	ldi	r24, 0x01	; 1
 794:	80 93 a2 00 	sts	0x00A2, r24	; 0x8000a2 <__TEXT_REGION_LENGTH__+0x7f80a2>
 798:	10 92 a5 00 	sts	0x00A5, r1	; 0x8000a5 <__TEXT_REGION_LENGTH__+0x7f80a5>
 79c:	10 92 a4 00 	sts	0x00A4, r1	; 0x8000a4 <__TEXT_REGION_LENGTH__+0x7f80a4>
        Psc_set_module_B(0,B_RA_VAL,duty); //PWM_Q4 (PSC1B)(PB6)
 7a0:	10 92 a7 00 	sts	0x00A7, r1	; 0x8000a7 <__TEXT_REGION_LENGTH__+0x7f80a7>
 7a4:	10 92 a6 00 	sts	0x00A6, r1	; 0x8000a6 <__TEXT_REGION_LENGTH__+0x7f80a6>
 7a8:	10 92 a9 00 	sts	0x00A9, r1	; 0x8000a9 <__TEXT_REGION_LENGTH__+0x7f80a9>
 7ac:	80 93 a8 00 	sts	0x00A8, r24	; 0x8000a8 <__TEXT_REGION_LENGTH__+0x7f80a8>
 7b0:	10 92 ab 00 	sts	0x00AB, r1	; 0x8000ab <__TEXT_REGION_LENGTH__+0x7f80ab>
 7b4:	d0 93 aa 00 	sts	0x00AA, r29	; 0x8000aa <__TEXT_REGION_LENGTH__+0x7f80aa>
 7b8:	1e c0       	rjmp	.+60     	; 0x7f6 <psc_commutateOutputWaveforms+0x206>
        Psc_set_module_C(duty,C_RA_VAL,0); //PWM_Q5 (PSC2A)(PB0)
      break;

      case 5: //Set_Q1Q4(); 0A 1B
        Psc_set_module_A(duty,A_RA_VAL,0); //PWM_Q1 (PSC0A)(PD0)
 7ba:	10 92 a1 00 	sts	0x00A1, r1	; 0x8000a1 <__TEXT_REGION_LENGTH__+0x7f80a1>
 7be:	d0 93 a0 00 	sts	0x00A0, r29	; 0x8000a0 <__TEXT_REGION_LENGTH__+0x7f80a0>
 7c2:	10 92 a3 00 	sts	0x00A3, r1	; 0x8000a3 <__TEXT_REGION_LENGTH__+0x7f80a3>
 7c6:	81 e0       	ldi	r24, 0x01	; 1
 7c8:	80 93 a2 00 	sts	0x00A2, r24	; 0x8000a2 <__TEXT_REGION_LENGTH__+0x7f80a2>
 7cc:	10 92 a5 00 	sts	0x00A5, r1	; 0x8000a5 <__TEXT_REGION_LENGTH__+0x7f80a5>
 7d0:	10 92 a4 00 	sts	0x00A4, r1	; 0x8000a4 <__TEXT_REGION_LENGTH__+0x7f80a4>
        Psc_set_module_B(0,B_RA_VAL,duty); //PWM_Q4 (PSC1B)(PB6)
 7d4:	10 92 a7 00 	sts	0x00A7, r1	; 0x8000a7 <__TEXT_REGION_LENGTH__+0x7f80a7>
 7d8:	10 92 a6 00 	sts	0x00A6, r1	; 0x8000a6 <__TEXT_REGION_LENGTH__+0x7f80a6>
 7dc:	10 92 a9 00 	sts	0x00A9, r1	; 0x8000a9 <__TEXT_REGION_LENGTH__+0x7f80a9>
 7e0:	80 93 a8 00 	sts	0x00A8, r24	; 0x8000a8 <__TEXT_REGION_LENGTH__+0x7f80a8>
 7e4:	10 92 ab 00 	sts	0x00AB, r1	; 0x8000ab <__TEXT_REGION_LENGTH__+0x7f80ab>
 7e8:	d0 93 aa 00 	sts	0x00AA, r29	; 0x8000aa <__TEXT_REGION_LENGTH__+0x7f80aa>
        Psc_set_module_C(0,C_RA_VAL,0);
 7ec:	10 92 ad 00 	sts	0x00AD, r1	; 0x8000ad <__TEXT_REGION_LENGTH__+0x7f80ad>
 7f0:	10 92 ac 00 	sts	0x00AC, r1	; 0x8000ac <__TEXT_REGION_LENGTH__+0x7f80ac>
 7f4:	04 c0       	rjmp	.+8      	; 0x7fe <psc_commutateOutputWaveforms+0x20e>
      break;

      case 6: //Set_Q5Q2(); 2A 0B
        Psc_set_module_A(0,A_RA_VAL,duty); //PWM_Q2 (PSC0B)(PB7)
        Psc_set_module_B(0,B_RA_VAL,0);
        Psc_set_module_C(duty,C_RA_VAL,0); //PWM_Q5 (PSC2A)(PB0)
 7f6:	10 92 ad 00 	sts	0x00AD, r1	; 0x8000ad <__TEXT_REGION_LENGTH__+0x7f80ad>
 7fa:	d0 93 ac 00 	sts	0x00AC, r29	; 0x8000ac <__TEXT_REGION_LENGTH__+0x7f80ac>
 7fe:	10 92 af 00 	sts	0x00AF, r1	; 0x8000af <__TEXT_REGION_LENGTH__+0x7f80af>
 802:	80 93 ae 00 	sts	0x00AE, r24	; 0x8000ae <__TEXT_REGION_LENGTH__+0x7f80ae>
 806:	10 92 b1 00 	sts	0x00B1, r1	; 0x8000b1 <__TEXT_REGION_LENGTH__+0x7f80b1>
 80a:	10 92 b0 00 	sts	0x00B0, r1	; 0x8000b0 <__TEXT_REGION_LENGTH__+0x7f80b0>
      break;
      
      default: /*psc_disconnectAllMOSFETs();*/ break;
    }

    Psc_unlock();
 80e:	84 e1       	ldi	r24, 0x14	; 20
 810:	80 93 b5 00 	sts	0x00B5, r24	; 0x8000b5 <__TEXT_REGION_LENGTH__+0x7f80b5>
  }
}
 814:	df 91       	pop	r29
 816:	cf 91       	pop	r28
 818:	08 95       	ret

0000081a <timing_runControlLoop_get>:

uint16_t motorRPM_measured = 0;

////////////////////////////////////////////////////////////////////////////////////////

uint8_t timing_runControlLoop_get(void)          { return runControlLoop; }
 81a:	80 91 33 01 	lds	r24, 0x0133	; 0x800133 <runControlLoop>
 81e:	08 95       	ret

00000820 <timing_runControlLoop_set>:
void    timing_runControlLoop_set(uint8_t state) { runControlLoop = state; }
 820:	80 93 33 01 	sts	0x0133, r24	; 0x800133 <runControlLoop>
 824:	08 95       	ret

00000826 <timing_timer0_init>:
//Configure 8b Timer0 //count up to OCR0A
//interrupt occurs when timer value is OCR0A
//interrupt causes main control loop to execute
void timing_timer0_init(void)
{
  TCCR0A = (1<<WGM01); //set timer mode=CTC, don't connect timer to any output pins
 826:	82 e0       	ldi	r24, 0x02	; 2
 828:	84 bd       	out	0x24, r24	; 36
  TCCR0B = (1<<CS01)|(1<<CS00); //prescale Timer0 clock to CPU/64 prescaler //MUST also change TIMER0_TICK_PERIOD_us constant!
 82a:	93 e0       	ldi	r25, 0x03	; 3
 82c:	95 bd       	out	0x25, r25	; 37
  OCR0A  = TIMER0_COUNTS_TO; // f_interrupt = 1/(16MHz/64DIV)*(OCR0A+1) //OCR0A=7: 32us tick (512 clocks @ 16 MHz)
 82e:	97 e0       	ldi	r25, 0x07	; 7
 830:	97 bd       	out	0x27, r25	; 39
  TIMSK0 = (1<<OCIE0A); // Output compare A Match interrupt Enable
 832:	80 93 6e 00 	sts	0x006E, r24	; 0x80006e <__TEXT_REGION_LENGTH__+0x7f806e>
 836:	08 95       	ret

00000838 <__vector_15>:

////////////////////////////////////////////////////////////////////////////////////////

//Timer0 interrupt occurs when timer hits 'OCR0A' value
//used to run main control loop 
ISR(TIMER0_COMPA_vect) { timing_runControlLoop_set(TRUE); }
 838:	1f 92       	push	r1
 83a:	0f 92       	push	r0
 83c:	0f b6       	in	r0, 0x3f	; 63
 83e:	0f 92       	push	r0
 840:	11 24       	eor	r1, r1
 842:	8f 93       	push	r24
uint16_t motorRPM_measured = 0;

////////////////////////////////////////////////////////////////////////////////////////

uint8_t timing_runControlLoop_get(void)          { return runControlLoop; }
void    timing_runControlLoop_set(uint8_t state) { runControlLoop = state; }
 844:	81 e0       	ldi	r24, 0x01	; 1
 846:	80 93 33 01 	sts	0x0133, r24	; 0x800133 <runControlLoop>

////////////////////////////////////////////////////////////////////////////////////////

//Timer0 interrupt occurs when timer hits 'OCR0A' value
//used to run main control loop 
ISR(TIMER0_COMPA_vect) { timing_runControlLoop_set(TRUE); }
 84a:	8f 91       	pop	r24
 84c:	0f 90       	pop	r0
 84e:	0f be       	out	0x3f, r0	; 63
 850:	0f 90       	pop	r0
 852:	1f 90       	pop	r1
 854:	18 95       	reti

00000856 <timing_timer1_init>:

//configure 16b Timer1: count up to 2^16
//used to calculate RPM (by measuring time between HallB rising edges)
void timing_timer1_init(void)
{
  TCCR1A = 0; //set timer mode=normal, don't connect timer to any output pins
 856:	10 92 80 00 	sts	0x0080, r1	; 0x800080 <__TEXT_REGION_LENGTH__+0x7f8080>
  TCCR1B = (0<<CS12)|(1<<CS11)|(1<<CS10); //prescale Timer1 clock to CPU/64 prescaler //MUST also change TIMER1_TICK_PERIOD_us constant!
 85a:	83 e0       	ldi	r24, 0x03	; 3
 85c:	80 93 81 00 	sts	0x0081, r24	; 0x800081 <__TEXT_REGION_LENGTH__+0x7f8081>
  TIMSK1 = (1<<TOIE1); //generate interrupt each time an overflow occurs
 860:	81 e0       	ldi	r24, 0x01	; 1
 862:	80 93 6f 00 	sts	0x006F, r24	; 0x80006f <__TEXT_REGION_LENGTH__+0x7f806f>
 866:	08 95       	ret

00000868 <__vector_14>:
//used to determine actual spindle RPM
//Timer1 increments every 4us ( 1/[16MHz/64] )
//Timer1 overflow interrupt occurs if no HallB rising edge occurs after ~262 milliseconds (2^16 * 4us) //HallB interrupt resets TCNT1 to zero)
//The value on Timer1 is the time between each Hall_B rising edge
ISR(TIMER1_OVF_vect)
{
 868:	1f 92       	push	r1
 86a:	0f 92       	push	r0
 86c:	0f b6       	in	r0, 0x3f	; 63
 86e:	0f 92       	push	r0
 870:	11 24       	eor	r1, r1

uint16_t timing_measuredRPM_get(void) { return motorRPM_measured; }

////////////////////////////////////////////////////////////////////////////////////////

void timing_measuredRPM_set(uint16_t measured_speed) { motorRPM_measured = measured_speed; }
 872:	10 92 32 01 	sts	0x0132, r1	; 0x800132 <motorRPM_measured+0x1>
 876:	10 92 31 01 	sts	0x0131, r1	; 0x800131 <motorRPM_measured>
  
  //pid_dutyCycle_set(175);
  //for(uint16_t ii=0; ii<1000; ii++) { psc_commutateOutputWaveforms( 175 ); } 

  timing_measuredRPM_set(0); //motor isn't spinning
}
 87a:	0f 90       	pop	r0
 87c:	0f be       	out	0x3f, r0	; 63
 87e:	0f 90       	pop	r0
 880:	1f 90       	pop	r1
 882:	18 95       	reti

00000884 <timing_calculateRPM>:

////////////////////////////////////////////////////////////////////////////////////////

inline void timing_calculateRPM(void)
{
  uint16_t timerCount = TCNT1; //retrive 16b timer value
 884:	e4 e8       	ldi	r30, 0x84	; 132
 886:	f0 e0       	ldi	r31, 0x00	; 0
 888:	20 81       	ld	r18, Z
 88a:	31 81       	ldd	r19, Z+1	; 0x01
  TCNT1 = 0x00; //reset Timer 1 ASAP (to minimize jitter)
 88c:	11 82       	std	Z+1, r1	; 0x01
 88e:	10 82       	st	Z, r1

uint16_t timing_measuredRPM_get(void) { return motorRPM_measured; }

////////////////////////////////////////////////////////////////////////////////////////

void timing_measuredRPM_set(uint16_t measured_speed) { motorRPM_measured = measured_speed; }
 890:	40 e0       	ldi	r20, 0x00	; 0
 892:	50 e0       	ldi	r21, 0x00	; 0
 894:	60 ee       	ldi	r22, 0xE0	; 224
 896:	70 e7       	ldi	r23, 0x70	; 112
 898:	82 e7       	ldi	r24, 0x72	; 114
 89a:	90 e0       	ldi	r25, 0x00	; 0
 89c:	0e 94 5f 04 	call	0x8be	; 0x8be <__udivmodsi4>
 8a0:	30 93 32 01 	sts	0x0132, r19	; 0x800132 <motorRPM_measured+0x1>
 8a4:	20 93 31 01 	sts	0x0131, r18	; 0x800131 <motorRPM_measured>
 8a8:	08 95       	ret

000008aa <timing_measuredRPM_get>:
  #endif
}

////////////////////////////////////////////////////////////////////////////////////////

uint16_t timing_measuredRPM_get(void) { return motorRPM_measured; }
 8aa:	80 91 31 01 	lds	r24, 0x0131	; 0x800131 <motorRPM_measured>
 8ae:	90 91 32 01 	lds	r25, 0x0132	; 0x800132 <motorRPM_measured+0x1>
 8b2:	08 95       	ret

000008b4 <timing_measuredRPM_set>:

////////////////////////////////////////////////////////////////////////////////////////

void timing_measuredRPM_set(uint16_t measured_speed) { motorRPM_measured = measured_speed; }
 8b4:	90 93 32 01 	sts	0x0132, r25	; 0x800132 <motorRPM_measured+0x1>
 8b8:	80 93 31 01 	sts	0x0131, r24	; 0x800131 <motorRPM_measured>
 8bc:	08 95       	ret

000008be <__udivmodsi4>:
 8be:	a1 e2       	ldi	r26, 0x21	; 33
 8c0:	1a 2e       	mov	r1, r26
 8c2:	aa 1b       	sub	r26, r26
 8c4:	bb 1b       	sub	r27, r27
 8c6:	fd 01       	movw	r30, r26
 8c8:	0d c0       	rjmp	.+26     	; 0x8e4 <__udivmodsi4_ep>

000008ca <__udivmodsi4_loop>:
 8ca:	aa 1f       	adc	r26, r26
 8cc:	bb 1f       	adc	r27, r27
 8ce:	ee 1f       	adc	r30, r30
 8d0:	ff 1f       	adc	r31, r31
 8d2:	a2 17       	cp	r26, r18
 8d4:	b3 07       	cpc	r27, r19
 8d6:	e4 07       	cpc	r30, r20
 8d8:	f5 07       	cpc	r31, r21
 8da:	20 f0       	brcs	.+8      	; 0x8e4 <__udivmodsi4_ep>
 8dc:	a2 1b       	sub	r26, r18
 8de:	b3 0b       	sbc	r27, r19
 8e0:	e4 0b       	sbc	r30, r20
 8e2:	f5 0b       	sbc	r31, r21

000008e4 <__udivmodsi4_ep>:
 8e4:	66 1f       	adc	r22, r22
 8e6:	77 1f       	adc	r23, r23
 8e8:	88 1f       	adc	r24, r24
 8ea:	99 1f       	adc	r25, r25
 8ec:	1a 94       	dec	r1
 8ee:	69 f7       	brne	.-38     	; 0x8ca <__udivmodsi4_loop>
 8f0:	60 95       	com	r22
 8f2:	70 95       	com	r23
 8f4:	80 95       	com	r24
 8f6:	90 95       	com	r25
 8f8:	9b 01       	movw	r18, r22
 8fa:	ac 01       	movw	r20, r24
 8fc:	bd 01       	movw	r22, r26
 8fe:	cf 01       	movw	r24, r30
 900:	08 95       	ret

00000902 <_exit>:
 902:	f8 94       	cli

00000904 <__stop_program>:
 904:	ff cf       	rjmp	.-2      	; 0x904 <__stop_program>
